	.file	"task3.cpp"
	.intel_syntax noprefix
.lcomm __ZStL8__ioinit,1,1
	.def	___main;	.scl	2;	.type	32;	.endef
	.section .rdata,"dr"
LC0:
	.ascii "PlainOldClass size: %d\12\0"
LC1:
	.ascii "CoolClass size: %d\12\0"
	.text
	.globl	_main
	.def	_main;	.scl	2;	.type	32;	.endef
_main:
LFB983:
	.cfi_startproc
	push	ebp
	.cfi_def_cfa_offset 8
	.cfi_offset 5, -8
	mov	ebp, esp
	.cfi_def_cfa_register 5
	and	esp, -16
	sub	esp, 16
	call	___main
	mov	DWORD PTR [esp+4], 4
	mov	DWORD PTR [esp], OFFSET FLAT:LC0
	call	_printf
	mov	DWORD PTR [esp+4], 8
	mov	DWORD PTR [esp], OFFSET FLAT:LC1
	call	_printf
	mov	eax, 0
	leave
	.cfi_restore 5
	.cfi_def_cfa 4, 4
	ret
	.cfi_endproc
LFE983:
	.def	___tcf_0;	.scl	3;	.type	32;	.endef
___tcf_0:
LFB985:
	.cfi_startproc
	push	ebp
	.cfi_def_cfa_offset 8
	.cfi_offset 5, -8
	mov	ebp, esp
	.cfi_def_cfa_register 5
	sub	esp, 8
	mov	ecx, OFFSET FLAT:__ZStL8__ioinit
	call	__ZNSt8ios_base4InitD1Ev
	leave
	.cfi_restore 5
	.cfi_def_cfa 4, 4
	ret
	.cfi_endproc
LFE985:
	.def	__Z41__static_initialization_and_destruction_0ii;	.scl	3;	.type	32;	.endef
__Z41__static_initialization_and_destruction_0ii:
LFB984:
	.cfi_startproc
	push	ebp
	.cfi_def_cfa_offset 8
	.cfi_offset 5, -8
	mov	ebp, esp
	.cfi_def_cfa_register 5
	sub	esp, 24
	cmp	DWORD PTR [ebp+8], 1
	jne	L4
	cmp	DWORD PTR [ebp+12], 65535
	jne	L4
	mov	ecx, OFFSET FLAT:__ZStL8__ioinit
	call	__ZNSt8ios_base4InitC1Ev
	mov	DWORD PTR [esp], OFFSET FLAT:___tcf_0
	call	_atexit
L4:
	leave
	.cfi_restore 5
	.cfi_def_cfa 4, 4
	ret
	.cfi_endproc
LFE984:
	.def	__GLOBAL__sub_I_main;	.scl	3;	.type	32;	.endef
__GLOBAL__sub_I_main:
LFB986:
	.cfi_startproc
	push	ebp
	.cfi_def_cfa_offset 8
	.cfi_offset 5, -8
	mov	ebp, esp
	.cfi_def_cfa_register 5
	sub	esp, 24
	mov	DWORD PTR [esp+4], 65535
	mov	DWORD PTR [esp], 1
	call	__Z41__static_initialization_and_destruction_0ii
	leave
	.cfi_restore 5
	.cfi_def_cfa 4, 4
	ret
	.cfi_endproc
LFE986:
	.section	.ctors,"w"
	.align 4
	.long	__GLOBAL__sub_I_main
	.ident	"GCC: (GNU) 4.8.1"
	.def	_printf;	.scl	2;	.type	32;	.endef
	.def	__ZNSt8ios_base4InitD1Ev;	.scl	2;	.type	32;	.endef
	.def	__ZNSt8ios_base4InitC1Ev;	.scl	2;	.type	32;	.endef
	.def	_atexit;	.scl	2;	.type	32;	.endef
